; Function Attrs: nounwind uwtable
define range(i32 -1, -2147483648) i32 @H5Tget_nmembers(i64 noundef %0) local_unnamed_addr #0 {
  %2 = load i8, ptr @H5_libinit_g, align 1
  %3 = trunc i8 %2 to i1
  %4 = load i8, ptr @H5_libterm_g, align 1
  %5 = trunc i8 %4 to i1
  %6 = select i1 %3, i1 true, i1 %5
  br i1 %6, label %14, label %7

7:                                                ; preds = %1
  %8 = tail call i32 @H5_init_library() #5
  %9 = icmp slt i32 %8, 0
  br i1 %9, label %10, label %14

10:                                               ; preds = %7
  %11 = load i64, ptr @H5E_FUNC_g, align 8
  %12 = load i64, ptr @H5E_CANTINIT_g, align 8
  %13 = tail call i32 (ptr, ptr, i32, i64, i64, ptr, ...) @H5E_printf_stack(ptr noundef nonnull @.str, ptr noundef nonnull @__func__.H5Tget_nmembers, i32 noundef 46, i64 noundef %11, i64 noundef %12, ptr noundef nonnull @.str.1) #5
  br label %.thread21

14:                                               ; preds = %7, %1
  %15 = tail call i32 @H5CX_push() #5
  %16 = icmp slt i32 %15, 0
  br i1 %16, label %17, label %21

17:                                               ; preds = %14
  %18 = load i64, ptr @H5E_FUNC_g, align 8
  %19 = load i64, ptr @H5E_CANTSET_g, align 8
  %20 = tail call i32 (ptr, ptr, i32, i64, i64, ptr, ...) @H5E_printf_stack(ptr noundef nonnull @.str, ptr noundef nonnull @__func__.H5Tget_nmembers, i32 noundef 46, i64 noundef %18, i64 noundef %19, ptr noundef nonnull @.str.2) #5
  br label %.thread21

21:                                               ; preds = %14
  %22 = tail call i32 @H5E_clear_stack() #5
  %23 = tail call ptr @H5I_object_verify(i64 noundef %0, i32 noundef 3) #5
  %24 = icmp eq ptr %23, null
  br i1 %24, label %25, label %29

25:                                               ; preds = %21
  %26 = load i64, ptr @H5E_ARGS_g, align 8
  %27 = load i64, ptr @H5E_BADTYPE_g, align 8
  %28 = tail call i32 (ptr, ptr, i32, i64, i64, ptr, ...) @H5E_printf_stack(ptr noundef nonnull @.str, ptr noundef nonnull @__func__.H5Tget_nmembers, i32 noundef 50, i64 noundef %26, i64 noundef %27, ptr noundef nonnull @.str.3) #5
  br label %.thread27

29:                                               ; preds = %21
  %30 = getelementptr inbounds nuw i8, ptr %23, i64 40
  %31 = load ptr, ptr %30, align 8
  %32 = getelementptr inbounds nuw i8, ptr %31, i64 12
  %33 = load i32, ptr %32, align 4
  switch i32 %33, label %H5T_get_nmembers.exit.thread [
    i32 6, label %H5T_get_nmembers.exit
    i32 8, label %H5T_get_nmembers.exit
  ]

H5T_get_nmembers.exit.thread:                     ; preds = %29
  %34 = load i64, ptr @H5E_ARGS_g, align 8
  %35 = load i64, ptr @H5E_BADTYPE_g, align 8
  %36 = tail call i32 (ptr, ptr, i32, i64, i64, ptr, ...) @H5E_printf_stack(ptr noundef nonnull @.str, ptr noundef nonnull @__func__.H5T_get_nmembers, i32 noundef 88, i64 noundef %34, i64 noundef %35, ptr noundef nonnull @.str.5) #5
  br label %38

H5T_get_nmembers.exit:                            ; preds = %29, %29
  %.0.i.in = getelementptr inbounds nuw i8, ptr %31, i64 52
  %.0.i = load i32, ptr %.0.i.in, align 4
  %37 = icmp slt i32 %.0.i, 0
  br i1 %37, label %38, label %43

38:                                               ; preds = %H5T_get_nmembers.exit.thread, %H5T_get_nmembers.exit
  %39 = load i64, ptr @H5E_ARGS_g, align 8
  %40 = load i64, ptr @H5E_BADTYPE_g, align 8
  %41 = tail call i32 (ptr, ptr, i32, i64, i64, ptr, ...) @H5E_printf_stack(ptr noundef nonnull @.str, ptr noundef nonnull @__func__.H5Tget_nmembers, i32 noundef 53, i64 noundef %39, i64 noundef %40, ptr noundef nonnull @.str.4) #5
  br label %.thread27

.thread27:                                        ; preds = %38, %25
  %42 = tail call i32 @H5CX_pop(i1 noundef zeroext true) #5
  br label %.thread21

43:                                               ; preds = %H5T_get_nmembers.exit
  %44 = tail call i32 @H5CX_pop(i1 noundef zeroext true) #5
  br label %46

.thread21:                                        ; preds = %17, %10, %.thread27
  %45 = tail call i32 @H5E_dump_api_stack() #5
  br label %46

46:                                               ; preds = %43, %.thread21
  %.091624 = phi i32 [ -1, %.thread21 ], [ %.0.i, %43 ]
  ret i32 %.091624
}